target datalayout = "e-m:e-p270:32:32-p271:32:32-p272:64:64-i64:64-i128:128-f80:128-n8:16:32:64-S128"
target triple = "x86_64-pc-linux-gnu"

%struct.ForEachState = type { ptr, i32 }
%struct.List = type { i32, i32, i32, ptr, [0 x %union.ListCell] }
%union.ListCell = type { ptr }
%struct.GroupingSet = type { i32, i32, ptr, i32 }

; Function Attrs: inlinehint nounwind uwtable
define internal i32 @list_length(ptr noundef %0) #2 {
  %2 = alloca ptr, align 8
  store ptr %0, ptr %2, align 8
  %3 = load ptr, ptr %2, align 8
  %4 = icmp ne ptr %3, null
  br i1 %4, label %5, label %9

5:                                                ; preds = %1
  %6 = load ptr, ptr %2, align 8
  %7 = getelementptr inbounds nuw %struct.List, ptr %6, i32 0, i32 1
  %8 = load i32, ptr %7, align 4
  br label %10

9:                                                ; preds = %1
  br label %10

10:                                               ; preds = %9, %5
  %11 = phi i32 [ %8, %5 ], [ 0, %9 ]
  ret i32 %11
}

; Function Attrs: nounwind uwtable
define internal ptr @expand_groupingset_node(ptr noundef %0) #0 {
  %2 = alloca ptr, align 8
  %3 = alloca ptr, align 8
  %4 = alloca %union.ListCell, align 8
  %5 = alloca %union.ListCell, align 8
  %6 = alloca ptr, align 8
  %7 = alloca ptr, align 8
  %8 = alloca i32, align 4
  %9 = alloca ptr, align 8
  %10 = alloca i32, align 4
  %11 = alloca %struct.ForEachState, align 8
  %12 = alloca i32, align 4
  %13 = alloca ptr, align 8
  %14 = alloca ptr, align 8
  %15 = alloca i32, align 4
  %16 = alloca i32, align 4
  %17 = alloca i32, align 4
  %18 = alloca ptr, align 8
  %19 = alloca ptr, align 8
  %20 = alloca i32, align 4
  %21 = alloca %struct.ForEachState, align 8
  %22 = alloca ptr, align 8
  %23 = alloca ptr, align 8
  %24 = alloca %struct.ForEachState, align 8
  %25 = alloca ptr, align 8
  store ptr %0, ptr %2, align 8
  call void @llvm.lifetime.start.p0(i64 8, ptr %3) #7
  store ptr null, ptr %3, align 8
  %26 = load ptr, ptr %2, align 8
  %27 = getelementptr inbounds nuw %struct.GroupingSet, ptr %26, i32 0, i32 1
  %28 = load i32, ptr %27, align 4
  switch i32 %28, label %229 [
    i32 0, label %29
    i32 1, label %33
    i32 2, label %40
    i32 3, label %113
    i32 4, label %184
  ]

29:                                               ; preds = %1
  store ptr null, ptr %4, align 8
  %30 = getelementptr inbounds nuw %union.ListCell, ptr %4, i32 0, i32 0
  %31 = load ptr, ptr %30, align 8
  %32 = call ptr @list_make1_impl(i32 noundef 1, ptr %31)
  store ptr %32, ptr %3, align 8
  br label %229

33:                                               ; preds = %1
  %34 = load ptr, ptr %2, align 8
  %35 = getelementptr inbounds nuw %struct.GroupingSet, ptr %34, i32 0, i32 2
  %36 = load ptr, ptr %35, align 8
  store ptr %36, ptr %5, align 8
  %37 = getelementptr inbounds nuw %union.ListCell, ptr %5, i32 0, i32 0
  %38 = load ptr, ptr %37, align 8
  %39 = call ptr @list_make1_impl(i32 noundef 1, ptr %38)
  store ptr %39, ptr %3, align 8
  br label %229

40:                                               ; preds = %1
  call void @llvm.lifetime.start.p0(i64 8, ptr %6) #7
  %41 = load ptr, ptr %2, align 8
  %42 = getelementptr inbounds nuw %struct.GroupingSet, ptr %41, i32 0, i32 2
  %43 = load ptr, ptr %42, align 8
  store ptr %43, ptr %6, align 8
  call void @llvm.lifetime.start.p0(i64 8, ptr %7) #7
  call void @llvm.lifetime.start.p0(i64 4, ptr %8) #7
  %44 = load ptr, ptr %2, align 8
  %45 = getelementptr inbounds nuw %struct.GroupingSet, ptr %44, i32 0, i32 2
  %46 = load ptr, ptr %45, align 8
  %47 = call i32 @list_length(ptr noundef %46)
  store i32 %47, ptr %8, align 4
  br label %48

48:                                               ; preds = %104, %40
  %49 = load i32, ptr %8, align 4
  %50 = icmp sgt i32 %49, 0
  br i1 %50, label %51, label %110

51:                                               ; preds = %48
  call void @llvm.lifetime.start.p0(i64 8, ptr %9) #7
  store ptr null, ptr %9, align 8
  call void @llvm.lifetime.start.p0(i64 4, ptr %10) #7
  %52 = load i32, ptr %8, align 4
  store i32 %52, ptr %10, align 4
  call void @llvm.lifetime.start.p0(i64 16, ptr %11) #7
  %53 = getelementptr inbounds nuw %struct.ForEachState, ptr %11, i32 0, i32 0
  %54 = load ptr, ptr %6, align 8
  store ptr %54, ptr %53, align 8
  %55 = getelementptr inbounds nuw %struct.ForEachState, ptr %11, i32 0, i32 1
  store i32 0, ptr %55, align 8
  %56 = getelementptr i8, ptr %11, i64 12
  call void @llvm.memset.p0.i64(ptr align 4 %56, i8 0, i64 4, i1 false)
  br label %57

57:                                               ; preds = %99, %51
  %58 = getelementptr inbounds nuw %struct.ForEachState, ptr %11, i32 0, i32 0
  %59 = load ptr, ptr %58, align 8
  %60 = icmp ne ptr %59, null
  br i1 %60, label %61, label %78

61:                                               ; preds = %57
  %62 = getelementptr inbounds nuw %struct.ForEachState, ptr %11, i32 0, i32 1
  %63 = load i32, ptr %62, align 8
  %64 = getelementptr inbounds nuw %struct.ForEachState, ptr %11, i32 0, i32 0
  %65 = load ptr, ptr %64, align 8
  %66 = getelementptr inbounds nuw %struct.List, ptr %65, i32 0, i32 1
  %67 = load i32, ptr %66, align 4
  %68 = icmp slt i32 %63, %67
  br i1 %68, label %69, label %78

69:                                               ; preds = %61
  %70 = getelementptr inbounds nuw %struct.ForEachState, ptr %11, i32 0, i32 0
  %71 = load ptr, ptr %70, align 8
  %72 = getelementptr inbounds nuw %struct.List, ptr %71, i32 0, i32 3
  %73 = load ptr, ptr %72, align 8
  %74 = getelementptr inbounds nuw %struct.ForEachState, ptr %11, i32 0, i32 1
  %75 = load i32, ptr %74, align 8
  %76 = sext i32 %75 to i64
  %77 = getelementptr inbounds %union.ListCell, ptr %73, i64 %76
  store ptr %77, ptr %7, align 8
  br label %79

78:                                               ; preds = %61, %57
  store ptr null, ptr %7, align 8
  br label %79

79:                                               ; preds = %78, %69
  %80 = phi i32 [ 1, %69 ], [ 0, %78 ]
  %81 = icmp ne i32 %80, 0
  br i1 %81, label %83, label %82

82:                                               ; preds = %79
  store i32 5, ptr %12, align 4
  br label %103

83:                                               ; preds = %79
  call void @llvm.lifetime.start.p0(i64 8, ptr %13) #7
  %84 = load ptr, ptr %7, align 8
  %85 = load ptr, ptr %84, align 8
  store ptr %85, ptr %13, align 8
  %86 = load ptr, ptr %9, align 8
  %87 = load ptr, ptr %13, align 8
  %88 = getelementptr inbounds nuw %struct.GroupingSet, ptr %87, i32 0, i32 2
  %89 = load ptr, ptr %88, align 8
  %90 = call ptr @list_concat(ptr noundef %86, ptr noundef %89)
  store ptr %90, ptr %9, align 8
  %91 = load i32, ptr %10, align 4
  %92 = add i32 %91, -1
  store i32 %92, ptr %10, align 4
  %93 = icmp eq i32 %92, 0
  br i1 %93, label %94, label %95

94:                                               ; preds = %83
  store i32 5, ptr %12, align 4
  br label %96

95:                                               ; preds = %83
  store i32 0, ptr %12, align 4
  br label %96

96:                                               ; preds = %95, %94
  call void @llvm.lifetime.end.p0(i64 8, ptr %13) #7
  %97 = load i32, ptr %12, align 4
  switch i32 %97, label %103 [
    i32 0, label %98
  ]

98:                                               ; preds = %96
  br label %99

99:                                               ; preds = %98
  %100 = getelementptr inbounds nuw %struct.ForEachState, ptr %11, i32 0, i32 1
  %101 = load i32, ptr %100, align 8
  %102 = add i32 %101, 1
  store i32 %102, ptr %100, align 8
  br label %57, !llvm.loop !27

103:                                              ; preds = %96, %82
  call void @llvm.lifetime.end.p0(i64 16, ptr %11) #7
  br label %104

104:                                              ; preds = %103
  %105 = load ptr, ptr %3, align 8
  %106 = load ptr, ptr %9, align 8
  %107 = call ptr @lappend(ptr noundef %105, ptr noundef %106)
  store ptr %107, ptr %3, align 8
  %108 = load i32, ptr %8, align 4
  %109 = add i32 %108, -1
  store i32 %109, ptr %8, align 4
  call void @llvm.lifetime.end.p0(i64 4, ptr %10) #7
  call void @llvm.lifetime.end.p0(i64 8, ptr %9) #7
  br label %48, !llvm.loop !28

110:                                              ; preds = %48
  %111 = load ptr, ptr %3, align 8
  %112 = call ptr @lappend(ptr noundef %111, ptr noundef null)
  store ptr %112, ptr %3, align 8
  call void @llvm.lifetime.end.p0(i64 4, ptr %8) #7
  call void @llvm.lifetime.end.p0(i64 8, ptr %7) #7
  call void @llvm.lifetime.end.p0(i64 8, ptr %6) #7
  br label %229

113:                                              ; preds = %1
  call void @llvm.lifetime.start.p0(i64 8, ptr %14) #7
  %114 = load ptr, ptr %2, align 8
  %115 = getelementptr inbounds nuw %struct.GroupingSet, ptr %114, i32 0, i32 2
  %116 = load ptr, ptr %115, align 8
  store ptr %116, ptr %14, align 8
  call void @llvm.lifetime.start.p0(i64 4, ptr %15) #7
  %117 = load ptr, ptr %14, align 8
  %118 = call i32 @list_length(ptr noundef %117)
  store i32 %118, ptr %15, align 4
  call void @llvm.lifetime.start.p0(i64 4, ptr %16) #7
  call void @llvm.lifetime.start.p0(i64 4, ptr %17) #7
  %119 = load i32, ptr %15, align 4
  %120 = shl i32 1, %119
  store i32 %120, ptr %16, align 4
  store i32 0, ptr %17, align 4
  br label %121

121:                                              ; preds = %180, %113
  %122 = load i32, ptr %17, align 4
  %123 = load i32, ptr %16, align 4
  %124 = icmp ult i32 %122, %123
  br i1 %124, label %125, label %183

125:                                              ; preds = %121
  call void @llvm.lifetime.start.p0(i64 8, ptr %18) #7
  store ptr null, ptr %18, align 8
  call void @llvm.lifetime.start.p0(i64 8, ptr %19) #7
  call void @llvm.lifetime.start.p0(i64 4, ptr %20) #7
  store i32 1, ptr %20, align 4
  call void @llvm.lifetime.start.p0(i64 16, ptr %21) #7
  %126 = getelementptr inbounds nuw %struct.ForEachState, ptr %21, i32 0, i32 0
  %127 = load ptr, ptr %14, align 8
  store ptr %127, ptr %126, align 8
  %128 = getelementptr inbounds nuw %struct.ForEachState, ptr %21, i32 0, i32 1
  store i32 0, ptr %128, align 8
  %129 = getelementptr i8, ptr %21, i64 12
  call void @llvm.memset.p0.i64(ptr align 4 %129, i8 0, i64 4, i1 false)
  br label %130

130:                                              ; preds = %172, %125
  %131 = getelementptr inbounds nuw %struct.ForEachState, ptr %21, i32 0, i32 0
  %132 = load ptr, ptr %131, align 8
  %133 = icmp ne ptr %132, null
  br i1 %133, label %134, label %151

134:                                              ; preds = %130
  %135 = getelementptr inbounds nuw %struct.ForEachState, ptr %21, i32 0, i32 1
  %136 = load i32, ptr %135, align 8
  %137 = getelementptr inbounds nuw %struct.ForEachState, ptr %21, i32 0, i32 0
  %138 = load ptr, ptr %137, align 8
  %139 = getelementptr inbounds nuw %struct.List, ptr %138, i32 0, i32 1
  %140 = load i32, ptr %139, align 4
  %141 = icmp slt i32 %136, %140
  br i1 %141, label %142, label %151

142:                                              ; preds = %134
  %143 = getelementptr inbounds nuw %struct.ForEachState, ptr %21, i32 0, i32 0
  %144 = load ptr, ptr %143, align 8
  %145 = getelementptr inbounds nuw %struct.List, ptr %144, i32 0, i32 3
  %146 = load ptr, ptr %145, align 8
  %147 = getelementptr inbounds nuw %struct.ForEachState, ptr %21, i32 0, i32 1
  %148 = load i32, ptr %147, align 8
  %149 = sext i32 %148 to i64
  %150 = getelementptr inbounds %union.ListCell, ptr %146, i64 %149
  store ptr %150, ptr %19, align 8
  br label %152

151:                                              ; preds = %134, %130
  store ptr null, ptr %19, align 8
  br label %152

152:                                              ; preds = %151, %142
  %153 = phi i32 [ 1, %142 ], [ 0, %151 ]
  %154 = icmp ne i32 %153, 0
  br i1 %154, label %156, label %155

155:                                              ; preds = %152
  store i32 11, ptr %12, align 4
  call void @llvm.lifetime.end.p0(i64 16, ptr %21) #7
  br label %176

156:                                              ; preds = %152
  call void @llvm.lifetime.start.p0(i64 8, ptr %22) #7
  %157 = load ptr, ptr %19, align 8
  %158 = load ptr, ptr %157, align 8
  store ptr %158, ptr %22, align 8
  %159 = load i32, ptr %20, align 4
  %160 = load i32, ptr %17, align 4
  %161 = and i32 %159, %160
  %162 = icmp ne i32 %161, 0
  br i1 %162, label %163, label %169

163:                                              ; preds = %156
  %164 = load ptr, ptr %18, align 8
  %165 = load ptr, ptr %22, align 8
  %166 = getelementptr inbounds nuw %struct.GroupingSet, ptr %165, i32 0, i32 2
  %167 = load ptr, ptr %166, align 8
  %168 = call ptr @list_concat(ptr noundef %164, ptr noundef %167)
  store ptr %168, ptr %18, align 8
  br label %169

169:                                              ; preds = %163, %156
  %170 = load i32, ptr %20, align 4
  %171 = shl i32 %170, 1
  store i32 %171, ptr %20, align 4
  call void @llvm.lifetime.end.p0(i64 8, ptr %22) #7
  br label %172

172:                                              ; preds = %169
  %173 = getelementptr inbounds nuw %struct.ForEachState, ptr %21, i32 0, i32 1
  %174 = load i32, ptr %173, align 8
  %175 = add i32 %174, 1
  store i32 %175, ptr %173, align 8
  br label %130, !llvm.loop !29

176:                                              ; preds = %155
  %177 = load ptr, ptr %3, align 8
  %178 = load ptr, ptr %18, align 8
  %179 = call ptr @lappend(ptr noundef %177, ptr noundef %178)
  store ptr %179, ptr %3, align 8
  call void @llvm.lifetime.end.p0(i64 4, ptr %20) #7
  call void @llvm.lifetime.end.p0(i64 8, ptr %19) #7
  call void @llvm.lifetime.end.p0(i64 8, ptr %18) #7
  br label %180

180:                                              ; preds = %176
  %181 = load i32, ptr %17, align 4
  %182 = add i32 %181, 1
  store i32 %182, ptr %17, align 4
  br label %121, !llvm.loop !30

183:                                              ; preds = %121
  call void @llvm.lifetime.end.p0(i64 4, ptr %17) #7
  call void @llvm.lifetime.end.p0(i64 4, ptr %16) #7
  call void @llvm.lifetime.end.p0(i64 4, ptr %15) #7
  call void @llvm.lifetime.end.p0(i64 8, ptr %14) #7
  br label %229

184:                                              ; preds = %1
  call void @llvm.lifetime.start.p0(i64 8, ptr %23) #7
  call void @llvm.lifetime.start.p0(i64 16, ptr %24) #7
  %185 = getelementptr inbounds nuw %struct.ForEachState, ptr %24, i32 0, i32 0
  %186 = load ptr, ptr %2, align 8
  %187 = getelementptr inbounds nuw %struct.GroupingSet, ptr %186, i32 0, i32 2
  %188 = load ptr, ptr %187, align 8
  store ptr %188, ptr %185, align 8
  %189 = getelementptr inbounds nuw %struct.ForEachState, ptr %24, i32 0, i32 1
  store i32 0, ptr %189, align 8
  %190 = getelementptr i8, ptr %24, i64 12
  call void @llvm.memset.p0.i64(ptr align 4 %190, i8 0, i64 4, i1 false)
  br label %191

191:                                              ; preds = %224, %184
  %192 = getelementptr inbounds nuw %struct.ForEachState, ptr %24, i32 0, i32 0
  %193 = load ptr, ptr %192, align 8
  %194 = icmp ne ptr %193, null
  br i1 %194, label %195, label %212

195:                                              ; preds = %191
  %196 = getelementptr inbounds nuw %struct.ForEachState, ptr %24, i32 0, i32 1
  %197 = load i32, ptr %196, align 8
  %198 = getelementptr inbounds nuw %struct.ForEachState, ptr %24, i32 0, i32 0
  %199 = load ptr, ptr %198, align 8
  %200 = getelementptr inbounds nuw %struct.List, ptr %199, i32 0, i32 1
  %201 = load i32, ptr %200, align 4
  %202 = icmp slt i32 %197, %201
  br i1 %202, label %203, label %212

203:                                              ; preds = %195
  %204 = getelementptr inbounds nuw %struct.ForEachState, ptr %24, i32 0, i32 0
  %205 = load ptr, ptr %204, align 8
  %206 = getelementptr inbounds nuw %struct.List, ptr %205, i32 0, i32 3
  %207 = load ptr, ptr %206, align 8
  %208 = getelementptr inbounds nuw %struct.ForEachState, ptr %24, i32 0, i32 1
  %209 = load i32, ptr %208, align 8
  %210 = sext i32 %209 to i64
  %211 = getelementptr inbounds %union.ListCell, ptr %207, i64 %210
  store ptr %211, ptr %23, align 8
  br label %213

212:                                              ; preds = %195, %191
  store ptr null, ptr %23, align 8
  br label %213

213:                                              ; preds = %212, %203
  %214 = phi i32 [ 1, %203 ], [ 0, %212 ]
  %215 = icmp ne i32 %214, 0
  br i1 %215, label %217, label %216

216:                                              ; preds = %213
  store i32 14, ptr %12, align 4
  call void @llvm.lifetime.end.p0(i64 16, ptr %24) #7
  br label %228

217:                                              ; preds = %213
  call void @llvm.lifetime.start.p0(i64 8, ptr %25) #7
  %218 = load ptr, ptr %23, align 8
  %219 = load ptr, ptr %218, align 8
  %220 = call ptr @expand_groupingset_node(ptr noundef %219)
  store ptr %220, ptr %25, align 8
  %221 = load ptr, ptr %3, align 8
  %222 = load ptr, ptr %25, align 8
  %223 = call ptr @list_concat(ptr noundef %221, ptr noundef %222)
  store ptr %223, ptr %3, align 8
  call void @llvm.lifetime.end.p0(i64 8, ptr %25) #7
  br label %224

224:                                              ; preds = %217
  %225 = getelementptr inbounds nuw %struct.ForEachState, ptr %24, i32 0, i32 1
  %226 = load i32, ptr %225, align 8
  %227 = add i32 %226, 1
  store i32 %227, ptr %225, align 8
  br label %191, !llvm.loop !31

228:                                              ; preds = %216
  call void @llvm.lifetime.end.p0(i64 8, ptr %23) #7
  br label %229

229:                                              ; preds = %1, %228, %183, %110, %33, %29
  %230 = load ptr, ptr %3, align 8
  store i32 1, ptr %12, align 4
  call void @llvm.lifetime.end.p0(i64 8, ptr %3) #7
  ret ptr %230
}