; Function Attrs: nounwind uwtable
define internal fastcc ptr @expand_groupingset_node(ptr noundef readonly captures(none) %0) unnamed_addr #0 {
  %2 = getelementptr inbounds nuw i8, ptr %0, i64 4
  %3 = load i32, ptr %2, align 4
  switch i32 %3, label %.thread86 [
    i32 0, label %4
    i32 1, label %6
    i32 2, label %10
    i32 3, label %35
    i32 4, label %62
  ]

4:                                                ; preds = %1
  %5 = tail call ptr @list_make1_impl(i32 noundef 1, ptr null) #11
  br label %.thread86

6:                                                ; preds = %1
  %7 = getelementptr inbounds nuw i8, ptr %0, i64 8
  %8 = load ptr, ptr %7, align 8
  %9 = tail call ptr @list_make1_impl(i32 noundef 1, ptr %8) #11
  br label %.thread86

10:                                               ; preds = %1
  %11 = getelementptr inbounds nuw i8, ptr %0, i64 8
  %12 = load ptr, ptr %11, align 8
  %.not.i = icmp eq ptr %12, null
  br i1 %.not.i, label %._crit_edge, label %list_length.exit

list_length.exit:                                 ; preds = %10
  %13 = getelementptr inbounds nuw i8, ptr %12, i64 4
  %14 = load i32, ptr %13, align 4
  %15 = icmp sgt i32 %14, 0
  br i1 %15, label %.preheader.preheader, label %._crit_edge

.preheader.preheader:                             ; preds = %list_length.exit
  %16 = getelementptr inbounds nuw i8, ptr %12, i64 4
  %17 = getelementptr inbounds nuw i8, ptr %12, i64 16
  br label %.preheader

.preheaderthread-pre-split:                       ; preds = %.thread
  %18 = add nsw i32 %.056136, -1
  %.pr = load i32, ptr %16, align 4
  br label %.preheader

.preheader:                                       ; preds = %.preheaderthread-pre-split, %.preheader.preheader
  %19 = phi i32 [ %.pr, %.preheaderthread-pre-split ], [ %14, %.preheader.preheader ]
  %.1139 = phi ptr [ %32, %.preheaderthread-pre-split ], [ null, %.preheader.preheader ]
  %.056136 = phi i32 [ %18, %.preheaderthread-pre-split ], [ %14, %.preheader.preheader ]
  %20 = icmp sgt i32 %19, 0
  br i1 %20, label %.lr.ph134, label %.thread

21:                                               ; preds = %.lr.ph134
  %indvars.iv.next157 = add nuw nsw i64 %indvars.iv156, 1
  %22 = load i32, ptr %16, align 4
  %23 = sext i32 %22 to i64
  %24 = icmp slt i64 %indvars.iv.next157, %23
  br i1 %24, label %.lr.ph134, label %.thread

.lr.ph134:                                        ; preds = %.preheader, %21
  %indvars.iv156 = phi i64 [ %indvars.iv.next157, %21 ], [ 0, %.preheader ]
  %.060120132 = phi i32 [ %31, %21 ], [ %.056136, %.preheader ]
  %.058121131 = phi ptr [ %30, %21 ], [ null, %.preheader ]
  %25 = load ptr, ptr %17, align 8
  %26 = getelementptr inbounds nuw %union.ListCell, ptr %25, i64 %indvars.iv156
  %27 = load ptr, ptr %26, align 8
  %28 = getelementptr inbounds nuw i8, ptr %27, i64 8
  %29 = load ptr, ptr %28, align 8
  %30 = tail call ptr @list_concat(ptr noundef %.058121131, ptr noundef %29) #11
  %31 = add i32 %.060120132, -1
  %.not76 = icmp eq i32 %31, 0
  br i1 %.not76, label %.thread, label %21

.thread:                                          ; preds = %.lr.ph134, %21, %.preheader
  %.159 = phi ptr [ null, %.preheader ], [ %30, %21 ], [ %30, %.lr.ph134 ]
  %32 = tail call ptr @lappend(ptr noundef %.1139, ptr noundef %.159) #11
  %33 = icmp sgt i32 %.056136, 1
  br i1 %33, label %.preheaderthread-pre-split, label %._crit_edge, !llvm.loop !15

._crit_edge:                                      ; preds = %.thread, %10, %list_length.exit
  %.1.lcssa = phi ptr [ null, %list_length.exit ], [ null, %10 ], [ %32, %.thread ]
  %34 = tail call ptr @lappend(ptr noundef %.1.lcssa, ptr noundef null) #11
  br label %.thread86

35:                                               ; preds = %1
  %36 = getelementptr inbounds nuw i8, ptr %0, i64 8
  %37 = load ptr, ptr %36, align 8
  %.not.i77 = icmp eq ptr %37, null
  br i1 %.not.i77, label %.preheader89.us, label %.preheader89.preheader

.preheader89.preheader:                           ; preds = %35
  %38 = getelementptr inbounds nuw i8, ptr %37, i64 4
  %39 = load i32, ptr %38, align 4
  %40 = getelementptr inbounds nuw i8, ptr %37, i64 4
  %41 = getelementptr inbounds nuw i8, ptr %37, i64 16
  br label %.preheader89

.preheader89.us:                                  ; preds = %35
  %42 = tail call ptr @lappend(ptr noundef null, ptr noundef null) #11
  br label %.thread86, !llvm.loop !16

.preheader89thread-pre-split:                     ; preds = %._crit_edge.split
  %.pr159 = load i32, ptr %40, align 4
  br label %.preheader89

.preheader89:                                     ; preds = %.preheader89thread-pre-split, %.preheader89.preheader
  %43 = phi i32 [ %.pr159, %.preheader89thread-pre-split ], [ %39, %.preheader89.preheader ]
  %.2117 = phi ptr [ %45, %.preheader89thread-pre-split ], [ null, %.preheader89.preheader ]
  %.065114 = phi i32 [ %46, %.preheader89thread-pre-split ], [ 0, %.preheader89.preheader ]
  %44 = icmp sgt i32 %43, 0
  br i1 %44, label %.lr.ph112, label %._crit_edge.split

._crit_edge.split:                                ; preds = %57, %.preheader89
  %split104 = phi ptr [ null, %.preheader89 ], [ %.164, %57 ]
  %45 = tail call ptr @lappend(ptr noundef %.2117, ptr noundef %split104) #11
  %46 = add i32 %.065114, 1
  %.065.highbits = lshr i32 %46, %39
  %47 = icmp eq i32 %.065.highbits, 0
  br i1 %47, label %.preheader89thread-pre-split, label %.thread86, !llvm.loop !16

.lr.ph112:                                        ; preds = %.preheader89, %57
  %48 = phi i32 [ %58, %57 ], [ %43, %.preheader89 ]
  %indvars.iv153 = phi i64 [ %indvars.iv.next154, %57 ], [ 0, %.preheader89 ]
  %.063100111 = phi ptr [ %.164, %57 ], [ null, %.preheader89 ]
  %.061101110 = phi i32 [ %59, %57 ], [ 1, %.preheader89 ]
  %49 = and i32 %.061101110, %.065114
  %.not73 = icmp eq i32 %49, 0
  br i1 %.not73, label %57, label %50

50:                                               ; preds = %.lr.ph112
  %51 = load ptr, ptr %41, align 8
  %52 = getelementptr inbounds nuw %union.ListCell, ptr %51, i64 %indvars.iv153
  %53 = load ptr, ptr %52, align 8
  %54 = getelementptr inbounds nuw i8, ptr %53, i64 8
  %55 = load ptr, ptr %54, align 8
  %56 = tail call ptr @list_concat(ptr noundef %.063100111, ptr noundef %55) #11
  %.pre = load i32, ptr %40, align 4
  br label %57

57:                                               ; preds = %50, %.lr.ph112
  %58 = phi i32 [ %.pre, %50 ], [ %48, %.lr.ph112 ]
  %.164 = phi ptr [ %56, %50 ], [ %.063100111, %.lr.ph112 ]
  %59 = shl i32 %.061101110, 1
  %indvars.iv.next154 = add nuw nsw i64 %indvars.iv153, 1
  %60 = sext i32 %58 to i64
  %61 = icmp slt i64 %indvars.iv.next154, %60
  br i1 %61, label %.lr.ph112, label %._crit_edge.split

62:                                               ; preds = %1
  %63 = getelementptr inbounds nuw i8, ptr %0, i64 8
  %64 = load ptr, ptr %63, align 8
  %65 = getelementptr inbounds nuw i8, ptr %64, i64 4
  %.not = icmp eq ptr %64, null
  br i1 %.not, label %.thread86, label %.lr.ph

.lr.ph:                                           ; preds = %62
  %66 = getelementptr inbounds nuw i8, ptr %64, i64 16
  %67 = load i32, ptr %65, align 4
  %68 = icmp sgt i32 %67, 0
  br i1 %68, label %.lr.ph98, label %.thread86

.lr.ph98:                                         ; preds = %.lr.ph, %.lr.ph98
  %indvars.iv = phi i64 [ %indvars.iv.next, %.lr.ph98 ], [ 0, %.lr.ph ]
  %.39296 = phi ptr [ %73, %.lr.ph98 ], [ null, %.lr.ph ]
  %69 = load ptr, ptr %66, align 8
  %70 = getelementptr inbounds nuw %union.ListCell, ptr %69, i64 %indvars.iv
  %71 = load ptr, ptr %70, align 8
  %72 = tail call fastcc ptr @expand_groupingset_node(ptr noundef %71)
  %73 = tail call ptr @list_concat(ptr noundef %.39296, ptr noundef %72) #11
  %indvars.iv.next = add nuw nsw i64 %indvars.iv, 1
  %74 = load i32, ptr %65, align 4
  %75 = sext i32 %74 to i64
  %76 = icmp slt i64 %indvars.iv.next, %75
  br i1 %76, label %.lr.ph98, label %.thread86

.thread86:                                        ; preds = %.lr.ph98, %._crit_edge.split, %.preheader89.us, %62, %.lr.ph, %._crit_edge, %6, %4, %1
  %.0 = phi ptr [ null, %1 ], [ %34, %._crit_edge ], [ %9, %6 ], [ %5, %4 ], [ null, %62 ], [ null, %.lr.ph ], [ %42, %.preheader89.us ], [ %45, %._crit_edge.split ], [ %73, %.lr.ph98 ]
  ret ptr %.0
}